target datalayout = "e-m:e-p270:32:32-p271:32:32-p272:64:64-i64:64-i128:128-f80:128-n8:16:32:64-S128"
target triple = "x86_64-pc-linux-gnu"

%struct.nghttp2_nv = type { ptr, ptr, i64, i64, i8 }

; Function Attrs: nounwind uwtable
define internal zeroext i8 @pack_first_byte(i32 noundef %0) #0 {
  %2 = alloca i8, align 1
  %3 = alloca i32, align 4
  store i32 %0, ptr %3, align 4, !tbaa !13
  %4 = load i32, ptr %3, align 4, !tbaa !13
  switch i32 %4, label %8 [
    i32 0, label %5
    i32 1, label %6
    i32 2, label %7
  ]

5:                                                ; preds = %1
  store i8 64, ptr %2, align 1
  br label %10

6:                                                ; preds = %1
  store i8 0, ptr %2, align 1
  br label %10

7:                                                ; preds = %1
  store i8 16, ptr %2, align 1
  br label %10

8:                                                ; preds = %1
  br label %9

9:                                                ; preds = %8
  store i8 0, ptr %2, align 1
  br label %10

10:                                               ; preds = %9, %7, %6, %5
  %11 = load i8, ptr %2, align 1
  ret i8 %11
}

; Function Attrs: nounwind uwtable
define internal i32 @emit_newname_block(ptr noundef %0, ptr noundef %1, i32 noundef %2) #0 {
  %4 = alloca i32, align 4
  %5 = alloca ptr, align 8
  %6 = alloca ptr, align 8
  %7 = alloca i32, align 4
  %8 = alloca i32, align 4
  %9 = alloca i32, align 4
  store ptr %0, ptr %5, align 8, !tbaa !9
  store ptr %1, ptr %6, align 8, !tbaa !9
  store i32 %2, ptr %7, align 4, !tbaa !13
  call void @llvm.lifetime.start.p0(i64 4, ptr %8) #6
  br label %10

10:                                               ; preds = %3
  br label %11

11:                                               ; preds = %10
  br label %12

12:                                               ; preds = %11
  %13 = load ptr, ptr %5, align 8, !tbaa !9
  %14 = load i32, ptr %7, align 4, !tbaa !13
  %15 = call zeroext i8 @pack_first_byte(i32 noundef %14)
  %16 = call i32 @nghttp2_bufs_addb(ptr noundef %13, i8 noundef zeroext %15)
  store i32 %16, ptr %8, align 4, !tbaa !13
  %17 = load i32, ptr %8, align 4, !tbaa !13
  %18 = icmp ne i32 %17, 0
  br i1 %18, label %19, label %21

19:                                               ; preds = %12
  %20 = load i32, ptr %8, align 4, !tbaa !13
  store i32 %20, ptr %4, align 4
  store i32 1, ptr %9, align 4
  br label %48

21:                                               ; preds = %12
  %22 = load ptr, ptr %5, align 8, !tbaa !9
  %23 = load ptr, ptr %6, align 8, !tbaa !9
  %24 = getelementptr inbounds nuw %struct.nghttp2_nv, ptr %23, i32 0, i32 0
  %25 = load ptr, ptr %24, align 8, !tbaa !87
  %26 = load ptr, ptr %6, align 8, !tbaa !9
  %27 = getelementptr inbounds nuw %struct.nghttp2_nv, ptr %26, i32 0, i32 2
  %28 = load i64, ptr %27, align 8, !tbaa !88
  %29 = call i32 @emit_string(ptr noundef %22, ptr noundef %25, i64 noundef %28)
  store i32 %29, ptr %8, align 4, !tbaa !13
  %30 = load i32, ptr %8, align 4, !tbaa !13
  %31 = icmp ne i32 %30, 0
  br i1 %31, label %32, label %34

32:                                               ; preds = %21
  %33 = load i32, ptr %8, align 4, !tbaa !13
  store i32 %33, ptr %4, align 4
  store i32 1, ptr %9, align 4
  br label %48

34:                                               ; preds = %21
  %35 = load ptr, ptr %5, align 8, !tbaa !9
  %36 = load ptr, ptr %6, align 8, !tbaa !9
  %37 = getelementptr inbounds nuw %struct.nghttp2_nv, ptr %36, i32 0, i32 1
  %38 = load ptr, ptr %37, align 8, !tbaa !96
  %39 = load ptr, ptr %6, align 8, !tbaa !9
  %40 = getelementptr inbounds nuw %struct.nghttp2_nv, ptr %39, i32 0, i32 3
  %41 = load i64, ptr %40, align 8, !tbaa !90
  %42 = call i32 @emit_string(ptr noundef %35, ptr noundef %38, i64 noundef %41)
  store i32 %42, ptr %8, align 4, !tbaa !13
  %43 = load i32, ptr %8, align 4, !tbaa !13
  %44 = icmp ne i32 %43, 0
  br i1 %44, label %45, label %47

45:                                               ; preds = %34
  %46 = load i32, ptr %8, align 4, !tbaa !13
  store i32 %46, ptr %4, align 4
  store i32 1, ptr %9, align 4
  br label %48

47:                                               ; preds = %34
  store i32 0, ptr %4, align 4
  store i32 1, ptr %9, align 4
  br label %48

48:                                               ; preds = %47, %45, %32, %19
  call void @llvm.lifetime.end.p0(i64 4, ptr %8) #6
  %49 = load i32, ptr %4, align 4
  ret i32 %49
}

; Function Attrs: nounwind uwtable
define dso_local i32 @nghttp2_hd_emit_newname_block(ptr noundef %0, ptr noundef %1, i32 noundef %2) #0 {
  %4 = alloca ptr, align 8
  %5 = alloca ptr, align 8
  %6 = alloca i32, align 4
  store ptr %0, ptr %4, align 8, !tbaa !9
  store ptr %1, ptr %5, align 8, !tbaa !9
  store i32 %2, ptr %6, align 4, !tbaa !13
  %7 = load ptr, ptr %4, align 8, !tbaa !9
  %8 = load ptr, ptr %5, align 8, !tbaa !9
  %9 = load i32, ptr %6, align 4, !tbaa !13
  %10 = call i32 @emit_newname_block(ptr noundef %7, ptr noundef %8, i32 noundef %9)
  ret i32 %10
}