; Function Attrs: nounwind uwtable
define dso_local i32 @nghttp2_hd_emit_newname_block(ptr noundef %0, ptr noundef readonly captures(none) %1, i32 noundef %2) local_unnamed_addr #0 {
  %switch.selectcmp.i.i = icmp eq i32 %2, 2
  %switch.select.i.i = select i1 %switch.selectcmp.i.i, i8 16, i8 0
  %switch.selectcmp2.i.i = icmp eq i32 %2, 0
  %switch.select3.i.i = select i1 %switch.selectcmp2.i.i, i8 64, i8 %switch.select.i.i
  %4 = tail call i32 @nghttp2_bufs_addb(ptr noundef %0, i8 noundef zeroext %switch.select3.i.i) #13
  %.not.i = icmp eq i32 %4, 0
  br i1 %.not.i, label %5, label %emit_newname_block.exit

5:                                                ; preds = %3
  %6 = load ptr, ptr %1, align 8, !tbaa !83
  %7 = getelementptr inbounds nuw i8, ptr %1, i64 16
  %8 = load i64, ptr %7, align 8, !tbaa !84
  %9 = tail call fastcc i32 @emit_string(ptr noundef %0, ptr noundef %6, i64 noundef %8)
  %.not17.i = icmp eq i32 %9, 0
  br i1 %.not17.i, label %10, label %emit_newname_block.exit

10:                                               ; preds = %5
  %11 = getelementptr inbounds nuw i8, ptr %1, i64 8
  %12 = load ptr, ptr %11, align 8, !tbaa !90
  %13 = getelementptr inbounds nuw i8, ptr %1, i64 24
  %14 = load i64, ptr %13, align 8, !tbaa !87
  %15 = tail call fastcc i32 @emit_string(ptr noundef %0, ptr noundef %12, i64 noundef %14)
  br label %emit_newname_block.exit

emit_newname_block.exit:                          ; preds = %3, %5, %10
  %.0.i = phi i32 [ %4, %3 ], [ %9, %5 ], [ %15, %10 ]
  ret i32 %.0.i
}